target datalayout = "e-m:e-p270:32:32-p271:32:32-p272:64:64-i64:64-i128:128-f80:128-n8:16:32:64-S128"
target triple = "x86_64-pc-linux-gnu"

%struct.reftable_buf = type { i64, i64, ptr }
%struct.string_view = type { ptr, i64 }
%struct.reftable_block = type { ptr, i64, %struct.reftable_block_source }
%struct.reftable_block_source = type { ptr, ptr }
%struct.block_reader = type { i32, %struct.reftable_block, i32, ptr, ptr, i64, i32, ptr, i16, i32 }

; Function Attrs: nounwind uwtable
define dso_local i32 @block_reader_first_key(ptr noundef %0, ptr noundef %1) #0 {
  %3 = alloca i32, align 4
  %4 = alloca ptr, align 8
  %5 = alloca ptr, align 8
  %6 = alloca i32, align 4
  %7 = alloca i32, align 4
  %8 = alloca %struct.string_view, align 8
  %9 = alloca i8, align 1
  %10 = alloca i32, align 4
  store ptr %0, ptr %4, align 8, !tbaa !61
  store ptr %1, ptr %5, align 8, !tbaa !41
  call void @llvm.lifetime.start.p0(i64 4, ptr %6) #10
  %11 = load ptr, ptr %4, align 8, !tbaa !61
  %12 = getelementptr inbounds nuw %struct.block_reader, ptr %11, i32 0, i32 0
  %13 = load i32, ptr %12, align 8, !tbaa !80
  %14 = add i32 %13, 4
  store i32 %14, ptr %6, align 4, !tbaa !4
  call void @llvm.lifetime.start.p0(i64 4, ptr %7) #10
  call void @llvm.lifetime.start.p0(i64 16, ptr %8) #10
  %15 = getelementptr inbounds nuw %struct.string_view, ptr %8, i32 0, i32 0
  %16 = load ptr, ptr %4, align 8, !tbaa !61
  %17 = getelementptr inbounds nuw %struct.block_reader, ptr %16, i32 0, i32 1
  %18 = getelementptr inbounds nuw %struct.reftable_block, ptr %17, i32 0, i32 0
  %19 = load ptr, ptr %18, align 8, !tbaa !90
  %20 = load i32, ptr %6, align 4, !tbaa !4
  %21 = sext i32 %20 to i64
  %22 = getelementptr inbounds i8, ptr %19, i64 %21
  store ptr %22, ptr %15, align 8, !tbaa !34
  %23 = getelementptr inbounds nuw %struct.string_view, ptr %8, i32 0, i32 1
  %24 = load ptr, ptr %4, align 8, !tbaa !61
  %25 = getelementptr inbounds nuw %struct.block_reader, ptr %24, i32 0, i32 6
  %26 = load i32, ptr %25, align 8, !tbaa !78
  %27 = load i32, ptr %6, align 4, !tbaa !4
  %28 = sub i32 %26, %27
  %29 = zext i32 %28 to i64
  store i64 %29, ptr %23, align 8, !tbaa !36
  call void @llvm.lifetime.start.p0(i64 1, ptr %9) #10
  store i8 0, ptr %9, align 1, !tbaa !11
  %30 = load ptr, ptr %5, align 8, !tbaa !41
  call void @reftable_buf_reset(ptr noundef %30)
  %31 = load ptr, ptr %5, align 8, !tbaa !41
  %32 = getelementptr inbounds nuw { ptr, i64 }, ptr %8, i32 0, i32 0
  %33 = load ptr, ptr %32, align 8
  %34 = getelementptr inbounds nuw { ptr, i64 }, ptr %8, i32 0, i32 1
  %35 = load i64, ptr %34, align 8
  %36 = call i32 @reftable_decode_key(ptr noundef %31, ptr noundef %9, ptr %33, i64 %35)
  store i32 %36, ptr %7, align 4, !tbaa !4
  %37 = load i32, ptr %7, align 4, !tbaa !4
  %38 = icmp slt i32 %37, 0
  br i1 %38, label %39, label %41

39:                                               ; preds = %2
  %40 = load i32, ptr %7, align 4, !tbaa !4
  store i32 %40, ptr %3, align 4
  store i32 1, ptr %10, align 4
  br label %48

41:                                               ; preds = %2
  %42 = load ptr, ptr %5, align 8, !tbaa !41
  %43 = getelementptr inbounds nuw %struct.reftable_buf, ptr %42, i32 0, i32 1
  %44 = load i64, ptr %43, align 8, !tbaa !46
  %45 = icmp ne i64 %44, 0
  br i1 %45, label %47, label %46

46:                                               ; preds = %41
  store i32 -3, ptr %3, align 4
  store i32 1, ptr %10, align 4
  br label %48

47:                                               ; preds = %41
  store i32 0, ptr %3, align 4
  store i32 1, ptr %10, align 4
  br label %48

48:                                               ; preds = %47, %46, %39
  call void @llvm.lifetime.end.p0(i64 1, ptr %9) #10
  call void @llvm.lifetime.end.p0(i64 16, ptr %8) #10
  call void @llvm.lifetime.end.p0(i64 4, ptr %7) #10
  call void @llvm.lifetime.end.p0(i64 4, ptr %6) #10
  %49 = load i32, ptr %3, align 4
  ret i32 %49
}