; Function Attrs: nounwind uwtable
define dso_local range(i32 -2147483648, 1) i32 @block_reader_first_key(ptr noundef readonly captures(none) %0, ptr noundef %1) local_unnamed_addr #2 {
  %3 = alloca i8, align 1
  %4 = load i32, ptr %0, align 8, !tbaa !63
  %5 = add i32 %4, 4
  %6 = getelementptr inbounds nuw i8, ptr %0, i64 8
  %7 = load ptr, ptr %6, align 8, !tbaa !66
  %8 = sext i32 %5 to i64
  %9 = getelementptr inbounds i8, ptr %7, i64 %8
  %10 = getelementptr inbounds nuw i8, ptr %0, i64 72
  %11 = load i32, ptr %10, align 8, !tbaa !61
  %12 = sub i32 %11, %5
  %13 = zext i32 %12 to i64
  call void @llvm.lifetime.start.p0(i64 1, ptr nonnull %3) #11
  store i8 0, ptr %3, align 1, !tbaa !19
  tail call void @reftable_buf_reset(ptr noundef %1) #11
  %14 = call i32 @reftable_decode_key(ptr noundef %1, ptr noundef nonnull %3, ptr %9, i64 %13) #11
  %15 = icmp slt i32 %14, 0
  br i1 %15, label %19, label %16

16:                                               ; preds = %2
  %17 = getelementptr inbounds nuw i8, ptr %1, i64 8
  %18 = load i64, ptr %17, align 8, !tbaa !34
  %.not = icmp eq i64 %18, 0
  %. = select i1 %.not, i32 -3, i32 0
  br label %19

19:                                               ; preds = %16, %2
  %.0 = phi i32 [ %14, %2 ], [ %., %16 ]
  call void @llvm.lifetime.end.p0(i64 1, ptr nonnull %3) #11
  ret i32 %.0
}